target datalayout = "e-m:e-p270:32:32-p271:32:32-p272:64:64-i64:64-i128:128-f80:128-n8:16:32:64-S128"
target triple = "x86_64-pc-linux-gnu"

%struct.h5tools_dump_header_t = type { ptr, ptr, ptr, ptr, ptr, ptr, ptr, ptr, ptr, ptr, ptr, ptr, ptr, ptr, ptr, ptr, ptr, ptr, ptr, ptr, ptr, ptr, ptr, ptr, ptr, ptr, ptr, ptr, ptr, ptr, ptr, ptr, ptr, ptr, ptr, ptr, ptr, ptr, ptr, ptr, ptr, ptr, ptr, ptr, ptr, ptr, ptr, ptr, ptr, ptr, ptr, ptr, ptr, ptr, ptr, ptr, ptr, ptr, ptr, ptr, ptr, ptr, ptr, ptr, ptr, ptr, ptr, ptr, ptr, ptr, ptr, ptr, ptr, ptr, ptr, ptr, ptr, ptr, ptr, ptr, ptr, ptr, ptr, ptr, ptr, ptr, ptr, ptr, ptr, ptr, ptr, ptr, ptr, ptr, ptr }
%struct.h5tools_context_t = type { i64, i64, i32, i32, [32 x i64], [32 x i64], i32, i64, i32, i64, i32, i32, [32 x i64], [32 x i64], i64, ptr, ptr, i32, i32 }

@.str.20 = private unnamed_addr constant [3 x i8] c"%s\00", align 1
@h5tools_dump_header_format = global ptr null, align 8
@.str.59 = private unnamed_addr constant [7 x i8] c"%s %s \00", align 1
@.str.212 = private unnamed_addr constant [4 x i8] c" %s\00", align 1
@.str.324 = private unnamed_addr constant [15 x i8] c"SELECTION NONE\00", align 1
@.str.325 = private unnamed_addr constant [6 x i8] c"POINT\00", align 1
@.str.326 = private unnamed_addr constant [28 x i8] c"SELECTION REGULAR_HYPERSLAB\00", align 1
@.str.327 = private unnamed_addr constant [30 x i8] c"SELECTION IRREGULAR_HYPERSLAB\00", align 1
@.str.328 = private unnamed_addr constant [14 x i8] c"SELECTION ALL\00", align 1
@.str.329 = private unnamed_addr constant [18 x i8] c"Unknown Selection\00", align 1

; Function Attrs: nounwind uwtable
define internal void @h5tools_print_virtual_selection(i64 noundef %0, ptr noundef %1, ptr noundef %2, ptr noundef %3, ptr noundef %4, ptr noundef %5, i64 noundef %6) #0 {
  %8 = alloca i64, align 8
  %9 = alloca ptr, align 8
  %10 = alloca ptr, align 8
  %11 = alloca ptr, align 8
  %12 = alloca ptr, align 8
  %13 = alloca ptr, align 8
  %14 = alloca i64, align 8
  store i64 %0, ptr %8, align 8, !tbaa !14
  store ptr %1, ptr %9, align 8, !tbaa !8
  store ptr %2, ptr %10, align 8, !tbaa !10
  store ptr %3, ptr %11, align 8, !tbaa !12
  store ptr %4, ptr %12, align 8, !tbaa !35
  store ptr %5, ptr %13, align 8, !tbaa !37
  store i64 %6, ptr %14, align 8, !tbaa !14
  %15 = load i64, ptr %8, align 8, !tbaa !14
  %16 = call i32 @H5Sget_select_type(i64 noundef %15)
  switch i32 %16, label %125 [
    i32 0, label %17
    i32 1, label %24
    i32 2, label %40
    i32 3, label %117
    i32 -1, label %124
    i32 4, label %124
  ]

17:                                               ; preds = %7
  %18 = load ptr, ptr %11, align 8, !tbaa !12
  %19 = getelementptr inbounds nuw %struct.h5tools_context_t, ptr %18, i32 0, i32 2
  store i32 1, ptr %19, align 8, !tbaa !46
  %20 = load ptr, ptr %12, align 8, !tbaa !35
  %21 = call ptr @h5tools_str_reset(ptr noundef %20)
  %22 = load ptr, ptr %12, align 8, !tbaa !35
  %23 = call ptr (ptr, ptr, ...) @h5tools_str_append(ptr noundef %22, ptr noundef @.str.20, ptr noundef @.str.324)
  br label %128

24:                                               ; preds = %7
  %25 = load ptr, ptr %12, align 8, !tbaa !35
  %26 = call ptr @h5tools_str_reset(ptr noundef %25)
  %27 = load ptr, ptr %12, align 8, !tbaa !35
  %28 = load ptr, ptr @h5tools_dump_header_format, align 8, !tbaa !3
  %29 = getelementptr inbounds nuw %struct.h5tools_dump_header_t, ptr %28, i32 0, i32 89
  %30 = load ptr, ptr %29, align 8, !tbaa !155
  %31 = call ptr (ptr, ptr, ...) @h5tools_str_append(ptr noundef %27, ptr noundef @.str.59, ptr noundef @.str.325, ptr noundef %30)
  %32 = load ptr, ptr %12, align 8, !tbaa !35
  %33 = load i64, ptr %8, align 8, !tbaa !14
  %34 = load ptr, ptr %10, align 8, !tbaa !10
  call void @h5tools_str_dump_space_points(ptr noundef %32, i64 noundef %33, ptr noundef %34)
  %35 = load ptr, ptr %12, align 8, !tbaa !35
  %36 = load ptr, ptr @h5tools_dump_header_format, align 8, !tbaa !3
  %37 = getelementptr inbounds nuw %struct.h5tools_dump_header_t, ptr %36, i32 0, i32 90
  %38 = load ptr, ptr %37, align 8, !tbaa !156
  %39 = call ptr (ptr, ptr, ...) @h5tools_str_append(ptr noundef %35, ptr noundef @.str.212, ptr noundef %38)
  br label %128

40:                                               ; preds = %7
  %41 = load ptr, ptr %11, align 8, !tbaa !12
  %42 = getelementptr inbounds nuw %struct.h5tools_context_t, ptr %41, i32 0, i32 2
  store i32 1, ptr %42, align 8, !tbaa !46
  %43 = load ptr, ptr %12, align 8, !tbaa !35
  %44 = call ptr @h5tools_str_reset(ptr noundef %43)
  %45 = load i64, ptr %8, align 8, !tbaa !14
  %46 = call i32 @H5Sis_regular_hyperslab(i64 noundef %45)
  %47 = icmp ne i32 %46, 0
  br i1 %47, label %48, label %67

48:                                               ; preds = %40
  %49 = load ptr, ptr %12, align 8, !tbaa !35
  %50 = load ptr, ptr @h5tools_dump_header_format, align 8, !tbaa !3
  %51 = getelementptr inbounds nuw %struct.h5tools_dump_header_t, ptr %50, i32 0, i32 89
  %52 = load ptr, ptr %51, align 8, !tbaa !155
  %53 = call ptr (ptr, ptr, ...) @h5tools_str_append(ptr noundef %49, ptr noundef @.str.59, ptr noundef @.str.326, ptr noundef %52)
  %54 = load ptr, ptr %9, align 8, !tbaa !8
  %55 = load ptr, ptr %10, align 8, !tbaa !10
  %56 = load ptr, ptr %11, align 8, !tbaa !12
  %57 = load ptr, ptr %12, align 8, !tbaa !35
  %58 = load ptr, ptr %13, align 8, !tbaa !37
  %59 = load i64, ptr %14, align 8, !tbaa !14
  %60 = call zeroext i1 @h5tools_render_element(ptr noundef %54, ptr noundef %55, ptr noundef %56, ptr noundef %57, ptr noundef %58, i64 noundef %59, i64 noundef 0, i64 noundef 0)
  %61 = load ptr, ptr %12, align 8, !tbaa !35
  %62 = call ptr @h5tools_str_reset(ptr noundef %61)
  %63 = load ptr, ptr %12, align 8, !tbaa !35
  %64 = load i64, ptr %8, align 8, !tbaa !14
  %65 = load ptr, ptr %10, align 8, !tbaa !10
  %66 = load ptr, ptr %11, align 8, !tbaa !12
  call void @h5tools_str_dump_space_slabs(ptr noundef %63, i64 noundef %64, ptr noundef %65, ptr noundef %66)
  br label %100

67:                                               ; preds = %40
  %68 = load ptr, ptr %12, align 8, !tbaa !35
  %69 = load ptr, ptr @h5tools_dump_header_format, align 8, !tbaa !3
  %70 = getelementptr inbounds nuw %struct.h5tools_dump_header_t, ptr %69, i32 0, i32 89
  %71 = load ptr, ptr %70, align 8, !tbaa !155
  %72 = call ptr (ptr, ptr, ...) @h5tools_str_append(ptr noundef %68, ptr noundef @.str.59, ptr noundef @.str.327, ptr noundef %71)
  %73 = load ptr, ptr %9, align 8, !tbaa !8
  %74 = load ptr, ptr %10, align 8, !tbaa !10
  %75 = load ptr, ptr %11, align 8, !tbaa !12
  %76 = load ptr, ptr %12, align 8, !tbaa !35
  %77 = load ptr, ptr %13, align 8, !tbaa !37
  %78 = load i64, ptr %14, align 8, !tbaa !14
  %79 = call zeroext i1 @h5tools_render_element(ptr noundef %73, ptr noundef %74, ptr noundef %75, ptr noundef %76, ptr noundef %77, i64 noundef %78, i64 noundef 0, i64 noundef 0)
  %80 = load ptr, ptr %11, align 8, !tbaa !12
  %81 = getelementptr inbounds nuw %struct.h5tools_context_t, ptr %80, i32 0, i32 10
  %82 = load i32, ptr %81, align 8, !tbaa !45
  %83 = add i32 %82, 1
  store i32 %83, ptr %81, align 8, !tbaa !45
  %84 = load ptr, ptr %11, align 8, !tbaa !12
  %85 = getelementptr inbounds nuw %struct.h5tools_context_t, ptr %84, i32 0, i32 2
  store i32 1, ptr %85, align 8, !tbaa !46
  %86 = load ptr, ptr %9, align 8, !tbaa !8
  %87 = load ptr, ptr %10, align 8, !tbaa !10
  %88 = load ptr, ptr %11, align 8, !tbaa !12
  %89 = load ptr, ptr %13, align 8, !tbaa !37
  %90 = load i64, ptr %89, align 8, !tbaa !14
  call void @h5tools_simple_prefix(ptr noundef %86, ptr noundef %87, ptr noundef %88, i64 noundef %90, i32 noundef 0)
  %91 = load ptr, ptr %12, align 8, !tbaa !35
  %92 = call ptr @h5tools_str_reset(ptr noundef %91)
  %93 = load ptr, ptr %12, align 8, !tbaa !35
  %94 = load i64, ptr %8, align 8, !tbaa !14
  %95 = load ptr, ptr %10, align 8, !tbaa !10
  call void @h5tools_str_dump_space_blocks(ptr noundef %93, i64 noundef %94, ptr noundef %95)
  %96 = load ptr, ptr %11, align 8, !tbaa !12
  %97 = getelementptr inbounds nuw %struct.h5tools_context_t, ptr %96, i32 0, i32 10
  %98 = load i32, ptr %97, align 8, !tbaa !45
  %99 = add i32 %98, -1
  store i32 %99, ptr %97, align 8, !tbaa !45
  br label %100

100:                                              ; preds = %67, %48
  %101 = load ptr, ptr %9, align 8, !tbaa !8
  %102 = load ptr, ptr %10, align 8, !tbaa !10
  %103 = load ptr, ptr %11, align 8, !tbaa !12
  %104 = load ptr, ptr %12, align 8, !tbaa !35
  %105 = load ptr, ptr %13, align 8, !tbaa !37
  %106 = load i64, ptr %14, align 8, !tbaa !14
  %107 = call zeroext i1 @h5tools_render_element(ptr noundef %101, ptr noundef %102, ptr noundef %103, ptr noundef %104, ptr noundef %105, i64 noundef %106, i64 noundef 0, i64 noundef 0)
  %108 = load ptr, ptr %11, align 8, !tbaa !12
  %109 = getelementptr inbounds nuw %struct.h5tools_context_t, ptr %108, i32 0, i32 2
  store i32 1, ptr %109, align 8, !tbaa !46
  %110 = load ptr, ptr %12, align 8, !tbaa !35
  %111 = call ptr @h5tools_str_reset(ptr noundef %110)
  %112 = load ptr, ptr %12, align 8, !tbaa !35
  %113 = load ptr, ptr @h5tools_dump_header_format, align 8, !tbaa !3
  %114 = getelementptr inbounds nuw %struct.h5tools_dump_header_t, ptr %113, i32 0, i32 90
  %115 = load ptr, ptr %114, align 8, !tbaa !156
  %116 = call ptr (ptr, ptr, ...) @h5tools_str_append(ptr noundef %112, ptr noundef @.str.20, ptr noundef %115)
  br label %128

117:                                              ; preds = %7
  %118 = load ptr, ptr %11, align 8, !tbaa !12
  %119 = getelementptr inbounds nuw %struct.h5tools_context_t, ptr %118, i32 0, i32 2
  store i32 1, ptr %119, align 8, !tbaa !46
  %120 = load ptr, ptr %12, align 8, !tbaa !35
  %121 = call ptr @h5tools_str_reset(ptr noundef %120)
  %122 = load ptr, ptr %12, align 8, !tbaa !35
  %123 = call ptr (ptr, ptr, ...) @h5tools_str_append(ptr noundef %122, ptr noundef @.str.20, ptr noundef @.str.328)
  br label %128

124:                                              ; preds = %7, %7
  br label %125

125:                                              ; preds = %7, %124
  %126 = load ptr, ptr %12, align 8, !tbaa !35
  %127 = call ptr (ptr, ptr, ...) @h5tools_str_append(ptr noundef %126, ptr noundef @.str.329)
  br label %128

128:                                              ; preds = %125, %117, %100, %24, %17
  %129 = load ptr, ptr %9, align 8, !tbaa !8
  %130 = load ptr, ptr %10, align 8, !tbaa !10
  %131 = load ptr, ptr %11, align 8, !tbaa !12
  %132 = load ptr, ptr %12, align 8, !tbaa !35
  %133 = load ptr, ptr %13, align 8, !tbaa !37
  %134 = load i64, ptr %14, align 8, !tbaa !14
  %135 = call zeroext i1 @h5tools_render_element(ptr noundef %129, ptr noundef %130, ptr noundef %131, ptr noundef %132, ptr noundef %133, i64 noundef %134, i64 noundef 0, i64 noundef 0)
  ret void
}