; Function Attrs: nounwind uwtable
define internal fastcc void @h5tools_print_virtual_selection(i64 noundef %0, ptr noundef %1, ptr noundef %2, ptr noundef %3, ptr noundef nonnull %4, ptr noundef nonnull %5, i64 noundef range(i64 1, 4294967296) %6) unnamed_addr #1 {
  %8 = tail call i32 @H5Sget_select_type(i64 noundef %0) #12
  switch i32 %8, label %55 [
    i32 0, label %9
    i32 1, label %13
    i32 2, label %23
    i32 3, label %51
  ]

9:                                                ; preds = %7
  %10 = getelementptr inbounds nuw i8, ptr %3, i64 16
  store i32 1, ptr %10, align 8, !tbaa !35
  %11 = tail call ptr @h5tools_str_reset(ptr noundef nonnull %4) #12
  %12 = tail call ptr (ptr, ptr, ...) @h5tools_str_append(ptr noundef nonnull %4, ptr noundef nonnull @.str.20, ptr noundef nonnull @.str.324) #12
  br label %57

13:                                               ; preds = %7
  %14 = tail call ptr @h5tools_str_reset(ptr noundef nonnull %4) #12
  %15 = load ptr, ptr @h5tools_dump_header_format, align 8, !tbaa !3
  %16 = getelementptr inbounds nuw i8, ptr %15, i64 712
  %17 = load ptr, ptr %16, align 8, !tbaa !153
  %18 = tail call ptr (ptr, ptr, ...) @h5tools_str_append(ptr noundef nonnull %4, ptr noundef nonnull @.str.59, ptr noundef nonnull @.str.325, ptr noundef %17) #12
  tail call void @h5tools_str_dump_space_points(ptr noundef nonnull %4, i64 noundef %0, ptr noundef %2) #12
  %19 = load ptr, ptr @h5tools_dump_header_format, align 8, !tbaa !3
  %20 = getelementptr inbounds nuw i8, ptr %19, i64 720
  %21 = load ptr, ptr %20, align 8, !tbaa !154
  %22 = tail call ptr (ptr, ptr, ...) @h5tools_str_append(ptr noundef nonnull %4, ptr noundef nonnull @.str.212, ptr noundef %21) #12
  br label %57

23:                                               ; preds = %7
  %24 = getelementptr inbounds nuw i8, ptr %3, i64 16
  store i32 1, ptr %24, align 8, !tbaa !35
  %25 = tail call ptr @h5tools_str_reset(ptr noundef nonnull %4) #12
  %26 = tail call i32 @H5Sis_regular_hyperslab(i64 noundef %0) #12
  %.not = icmp eq i32 %26, 0
  %27 = load ptr, ptr @h5tools_dump_header_format, align 8, !tbaa !3
  %28 = getelementptr inbounds nuw i8, ptr %27, i64 712
  %29 = load ptr, ptr %28, align 8, !tbaa !153
  br i1 %.not, label %34, label %30

30:                                               ; preds = %23
  %31 = tail call ptr (ptr, ptr, ...) @h5tools_str_append(ptr noundef nonnull %4, ptr noundef nonnull @.str.59, ptr noundef nonnull @.str.326, ptr noundef %29) #12
  %32 = tail call zeroext i1 @h5tools_render_element(ptr noundef %1, ptr noundef %2, ptr noundef nonnull %3, ptr noundef nonnull %4, ptr noundef nonnull %5, i64 noundef %6, i64 noundef 0, i64 noundef 0) #12
  %33 = tail call ptr @h5tools_str_reset(ptr noundef nonnull %4) #12
  tail call void @h5tools_str_dump_space_slabs(ptr noundef nonnull %4, i64 noundef %0, ptr noundef %2, ptr noundef nonnull %3) #12
  br label %44

34:                                               ; preds = %23
  %35 = tail call ptr (ptr, ptr, ...) @h5tools_str_append(ptr noundef nonnull %4, ptr noundef nonnull @.str.59, ptr noundef nonnull @.str.327, ptr noundef %29) #12
  %36 = tail call zeroext i1 @h5tools_render_element(ptr noundef %1, ptr noundef %2, ptr noundef nonnull %3, ptr noundef nonnull %4, ptr noundef nonnull %5, i64 noundef %6, i64 noundef 0, i64 noundef 0) #12
  %37 = getelementptr inbounds nuw i8, ptr %3, i64 568
  %38 = load i32, ptr %37, align 8, !tbaa !34
  %39 = add i32 %38, 1
  store i32 %39, ptr %37, align 8, !tbaa !34
  store i32 1, ptr %24, align 8, !tbaa !35
  %40 = load i64, ptr %5, align 8, !tbaa !19
  tail call void @h5tools_simple_prefix(ptr noundef %1, ptr noundef %2, ptr noundef nonnull %3, i64 noundef %40, i32 noundef 0) #12
  %41 = tail call ptr @h5tools_str_reset(ptr noundef nonnull %4) #12
  tail call void @h5tools_str_dump_space_blocks(ptr noundef nonnull %4, i64 noundef %0, ptr noundef %2) #12
  %42 = load i32, ptr %37, align 8, !tbaa !34
  %43 = add i32 %42, -1
  store i32 %43, ptr %37, align 8, !tbaa !34
  br label %44

44:                                               ; preds = %34, %30
  %45 = tail call zeroext i1 @h5tools_render_element(ptr noundef %1, ptr noundef %2, ptr noundef nonnull %3, ptr noundef nonnull %4, ptr noundef nonnull %5, i64 noundef %6, i64 noundef 0, i64 noundef 0) #12
  store i32 1, ptr %24, align 8, !tbaa !35
  %46 = tail call ptr @h5tools_str_reset(ptr noundef nonnull %4) #12
  %47 = load ptr, ptr @h5tools_dump_header_format, align 8, !tbaa !3
  %48 = getelementptr inbounds nuw i8, ptr %47, i64 720
  %49 = load ptr, ptr %48, align 8, !tbaa !154
  %50 = tail call ptr (ptr, ptr, ...) @h5tools_str_append(ptr noundef nonnull %4, ptr noundef nonnull @.str.20, ptr noundef %49) #12
  br label %57

51:                                               ; preds = %7
  %52 = getelementptr inbounds nuw i8, ptr %3, i64 16
  store i32 1, ptr %52, align 8, !tbaa !35
  %53 = tail call ptr @h5tools_str_reset(ptr noundef nonnull %4) #12
  %54 = tail call ptr (ptr, ptr, ...) @h5tools_str_append(ptr noundef nonnull %4, ptr noundef nonnull @.str.20, ptr noundef nonnull @.str.328) #12
  br label %57

55:                                               ; preds = %7
  %56 = tail call ptr (ptr, ptr, ...) @h5tools_str_append(ptr noundef nonnull %4, ptr noundef nonnull @.str.329) #12
  br label %57

57:                                               ; preds = %55, %51, %44, %13, %9
  %58 = tail call zeroext i1 @h5tools_render_element(ptr noundef %1, ptr noundef %2, ptr noundef %3, ptr noundef nonnull %4, ptr noundef nonnull %5, i64 noundef %6, i64 noundef 0, i64 noundef 0) #12
  ret void
}